; Function Attrs: nounwind uwtable
define hidden void @dom_parent_node_before(ptr noundef %0, ptr noundef %1, i32 noundef %2) local_unnamed_addr #0 {
  %4 = tail call ptr @dom_object_get_node(ptr noundef %0) #3
  %5 = getelementptr inbounds i8, ptr %4, i64 40
  %6 = load ptr, ptr %5, align 8
  %7 = getelementptr inbounds i8, ptr %0, i64 8
  %8 = load ptr, ptr %7, align 8
  %9 = tail call fastcc i32 @dom_sanity_check_node_list_for_insertion(ptr noundef %8, ptr noundef %6, ptr noundef %1, i32 noundef %2), !range !4
  %.not = icmp eq i32 %9, 0
  br i1 %.not, label %.preheader, label %72

.preheader:                                       ; preds = %3
  %.not.i = icmp eq i32 %2, 0
  %10 = zext i32 %2 to i64
  br i1 %.not.i, label %.preheader.split.us, label %.preheader.split

.preheader.split.us:                              ; preds = %.preheader
  %.0.in.us = getelementptr inbounds i8, ptr %4, i64 56
  %.0.us = load ptr, ptr %.0.in.us, align 8
  %.not39.us = icmp eq ptr %.0.us, null
  br label %dom_is_node_in_list.exit.thread

.preheader.split:                                 ; preds = %.preheader, %dom_is_node_in_list.exit
  %.pn = phi ptr [ %.0, %dom_is_node_in_list.exit ], [ %4, %.preheader ]
  %.0.in = getelementptr inbounds i8, ptr %.pn, i64 56
  %.0 = load ptr, ptr %.0.in, align 8
  %.not39 = icmp eq ptr %.0, null
  br i1 %.not39, label %dom_is_node_in_list.exit.thread, label %.lr.ph.i

.lr.ph.i:                                         ; preds = %.preheader.split, %21
  %indvars.iv.i = phi i64 [ %indvars.iv.next.i, %21 ], [ 0, %.preheader.split ]
  %11 = phi i1 [ %22, %21 ], [ true, %.preheader.split ]
  %12 = getelementptr inbounds %struct._zval_struct, ptr %1, i64 %indvars.iv.i
  %13 = getelementptr inbounds i8, ptr %12, i64 8
  %14 = load i8, ptr %13, align 8
  %15 = icmp eq i8 %14, 8
  br i1 %15, label %16, label %21

16:                                               ; preds = %.lr.ph.i
  %17 = load ptr, ptr %12, align 8
  %18 = getelementptr inbounds i8, ptr %17, i64 -24
  %19 = tail call ptr @dom_object_get_node(ptr noundef nonnull %18) #3
  %20 = icmp eq ptr %19, %.0
  br i1 %20, label %dom_is_node_in_list.exit, label %21

21:                                               ; preds = %16, %.lr.ph.i
  %indvars.iv.next.i = add nuw nsw i64 %indvars.iv.i, 1
  %22 = icmp ult i64 %indvars.iv.next.i, %10
  %exitcond.not.i = icmp eq i64 %indvars.iv.next.i, %10
  br i1 %exitcond.not.i, label %dom_is_node_in_list.exit, label %.lr.ph.i

dom_is_node_in_list.exit:                         ; preds = %16, %21
  %.lcssa.i = phi i1 [ %22, %21 ], [ %11, %16 ]
  br i1 %.lcssa.i, label %.preheader.split, label %dom_is_node_in_list.exit.thread

dom_is_node_in_list.exit.thread:                  ; preds = %.preheader.split, %dom_is_node_in_list.exit, %.preheader.split.us
  %.us-phi = phi ptr [ %.0.us, %.preheader.split.us ], [ null, %.preheader.split ], [ %.0, %dom_is_node_in_list.exit ]
  %.us-phi46 = phi i1 [ %.not39.us, %.preheader.split.us ], [ true, %.preheader.split ], [ %.not39, %dom_is_node_in_list.exit ]
  %23 = getelementptr inbounds i8, ptr %4, i64 64
  %24 = load ptr, ptr %23, align 8
  %25 = load ptr, ptr %7, align 8
  %.not40 = icmp eq ptr %25, null
  br i1 %.not40, label %30, label %26

26:                                               ; preds = %dom_is_node_in_list.exit.thread
  %27 = getelementptr inbounds i8, ptr %25, i64 16
  %28 = load i64, ptr %27, align 8
  %29 = add i64 %28, 1
  store i64 %29, ptr %27, align 8
  %.pre = load ptr, ptr %7, align 8
  br label %30

30:                                               ; preds = %dom_is_node_in_list.exit.thread, %26
  %31 = phi ptr [ null, %dom_is_node_in_list.exit.thread ], [ %.pre, %26 ]
  %32 = tail call ptr @dom_zvals_to_fragment(ptr noundef %31, ptr noundef %6, ptr noundef %1, i32 noundef %2)
  %33 = icmp eq ptr %32, null
  br i1 %33, label %72, label %34

34:                                               ; preds = %30
  %35 = getelementptr inbounds i8, ptr %32, i64 24
  %36 = load ptr, ptr %35, align 8
  %.not41 = icmp eq ptr %36, null
  br i1 %.not41, label %70, label %37

37:                                               ; preds = %34
  %38 = getelementptr inbounds i8, ptr %32, i64 32
  %39 = load ptr, ptr %38, align 8
  %40 = getelementptr inbounds i8, ptr %.us-phi, i64 48
  %41 = getelementptr inbounds i8, ptr %6, i64 24
  %.1.in = select i1 %.us-phi46, ptr %41, ptr %40
  %.1 = load ptr, ptr %.1.in, align 8
  %.not.i42 = icmp eq ptr %.1, null
  br i1 %.not.i42, label %42, label %52

42:                                               ; preds = %37
  %43 = load ptr, ptr %41, align 8
  %.not24.i = icmp eq ptr %43, null
  br i1 %.not24.i, label %49, label %44

44:                                               ; preds = %42
  %45 = getelementptr inbounds i8, ptr %6, i64 32
  %46 = load ptr, ptr %45, align 8
  %47 = getelementptr inbounds i8, ptr %36, i64 56
  store ptr %46, ptr %47, align 8
  %48 = getelementptr inbounds i8, ptr %46, i64 48
  br label %49

49:                                               ; preds = %44, %42
  %.sink.i = phi ptr [ %48, %44 ], [ %41, %42 ]
  store ptr %36, ptr %.sink.i, align 8
  %50 = load ptr, ptr %38, align 8
  %51 = getelementptr inbounds i8, ptr %6, i64 32
  store ptr %50, ptr %51, align 8
  br label %dom_pre_insert.exit

52:                                               ; preds = %37
  %53 = getelementptr inbounds i8, ptr %39, i64 48
  store ptr %.1, ptr %53, align 8
  %54 = getelementptr inbounds i8, ptr %.1, i64 56
  %55 = load ptr, ptr %54, align 8
  %.not25.i = icmp eq ptr %55, null
  br i1 %.not25.i, label %60, label %56

56:                                               ; preds = %52
  %57 = getelementptr inbounds i8, ptr %55, i64 48
  store ptr %36, ptr %57, align 8
  %58 = load ptr, ptr %54, align 8
  %59 = getelementptr inbounds i8, ptr %36, i64 56
  store ptr %58, ptr %59, align 8
  br label %60

60:                                               ; preds = %56, %52
  %61 = load ptr, ptr %38, align 8
  store ptr %61, ptr %54, align 8
  %62 = load ptr, ptr %41, align 8
  %63 = icmp eq ptr %62, %.1
  br i1 %63, label %64, label %dom_pre_insert.exit

64:                                               ; preds = %60
  store ptr %36, ptr %41, align 8
  br label %dom_pre_insert.exit

dom_pre_insert.exit:                              ; preds = %49, %60, %64
  %.09.i = load ptr, ptr %35, align 8
  %.not10.i = icmp eq ptr %.09.i, null
  br i1 %.not10.i, label %dom_fragment_assign_parent_node.exit, label %.lr.ph.i43

65:                                               ; preds = %.lr.ph.i43
  %66 = getelementptr inbounds i8, ptr %.011.i, i64 48
  %.0.i = load ptr, ptr %66, align 8
  %.not.i44 = icmp eq ptr %.0.i, null
  br i1 %.not.i44, label %dom_fragment_assign_parent_node.exit, label %.lr.ph.i43

.lr.ph.i43:                                       ; preds = %dom_pre_insert.exit, %65
  %.011.i = phi ptr [ %.0.i, %65 ], [ %.09.i, %dom_pre_insert.exit ]
  %67 = getelementptr inbounds i8, ptr %.011.i, i64 40
  store ptr %6, ptr %67, align 8
  %68 = load ptr, ptr %38, align 8
  %69 = icmp eq ptr %.011.i, %68
  br i1 %69, label %dom_fragment_assign_parent_node.exit, label %65

dom_fragment_assign_parent_node.exit:             ; preds = %65, %.lr.ph.i43, %dom_pre_insert.exit
  tail call void @llvm.memset.p0.i64(ptr noundef nonnull align 8 dereferenceable(16) %35, i8 0, i64 16, i1 false)
  tail call void @dom_reconcile_ns_list(ptr noundef %24, ptr noundef nonnull %36, ptr noundef %39) #3
  br label %70

70:                                               ; preds = %dom_fragment_assign_parent_node.exit, %34
  %71 = load ptr, ptr @xmlFree, align 8
  tail call void %71(ptr noundef nonnull %32) #3
  br label %72

72:                                               ; preds = %30, %3, %70
  ret void
}